ccopy_reg
_reconstructor
p1
(cnupic.frameworks.opf.clamodel
CLAModel
p2
c__builtin__
object
p3
NtRp4
(dp5
S'_CLAModel__numRunCalls'
p6
I1032200
sS'_hasCL'
p7
I01
sS'_minLikelihoodThreshold'
p8
F0.0001
sS'_CLAModel__finishedLearning'
p9
I00
sS'_Model__inferenceType'
p10
S'TemporalMultiStep'
p11
sS'_Model__inferenceArgs'
p12
(dp13
S'predictedField'
p14
S'kwh'
p15
ssS'_netInfo'
p16
g1
(cnupic.frameworks.opf.clamodel
NetworkInfo
p17
g3
NtRp18
(dp19
S'net'
p20
NsS'statsCollectors'
p21
(lp22
sbsS'_predictedFieldIdx'
p23
I0
sS'_hasSP'
p24
I01
sS'_classifierInputEncoder'
p25
g1
(cnupic.encoders.scalar
ScalarEncoder
p26
g3
NtRp27
(dp28
S'maxval'
p29
F5.1799999999999997
sS'encoders'
p30
NsS'nInternal'
p31
I111
sS'name'
p32
S'_classifierInput'
p33
sS'minval'
p34
F0
sS'_topDownValues'
p35
NsS'_bucketValues'
p36
NsS'clipInput'
p37
I01
sS'_flattenedEncoderList'
p38
(lp39
g27
asS'n'
I131
sS'padding'
p40
I10
sS'range'
p41
F5.2270909090909088
sS'periodic'
p42
I00
sS'radius'
p43
F0.98890909090909085
sS'verbosity'
p44
I0
sS'w'
I21
sS'_topDownMappingM'
p45
NsS'halfwidth'
p46
I10
sS'resolution'
p47
F0.047090909090909086
sS'rangeInternal'
p48
F5.1799999999999997
sbsS'_CLAModel__tpLearningEnabled'
p49
I01
sS'_Model__learningEnabled'
p50
I01
sS'_Model__inferenceEnabled'
p51
I01
sS'_anomalyInst'
p52
g1
(cnupic.algorithms.anomaly
Anomaly
p53
g3
NtRp54
(dp55
S'_movingAverage'
p56
NsS'_mode'
p57
S'pure'
p58
sbsS'_CLAModel__trainSPNetOnlyIfRequested'
p59
I00
sS'_numPredictions'
p60
I1032200
sS'_maxPredictionsPerStep'
p61
I8
sS'_CLAModel__spLearningEnabled'
p62
I01
sS'_predictedFieldName'
p63
g15
sS'_hasTP'
p64
I01
sS'_numFields'
p65
I2
sS'_CLAModel__restoringFromV1'
p66
I00
sb.